target datalayout = "e-m:e-p270:32:32-p271:32:32-p272:64:64-i64:64-i128:128-f80:128-n8:16:32:64-S128"
target triple = "x86_64-pc-linux-gnu"

%"class.metaspace::FreeChunkList" = type <{ ptr, ptr, %"class.metaspace::AbstractCounter", [4 x i8] }>
%"class.metaspace::AbstractCounter" = type { i32 }
%"class.metaspace::Metachunk" = type { ptr, i64, i64, i8, i8, ptr, ptr, ptr, ptr, ptr }
%"class.metaspace::FreeChunkListVector" = type { [15 x %"class.metaspace::FreeChunkList"] }

@.str = private unnamed_addr constant [5 x i8] c" - <\00", align 1
@.str.4 = private unnamed_addr constant [2 x i8] c">\00", align 1
@.str.5 = private unnamed_addr constant [22 x i8] c" - total : %d chunks.\00", align 1
@.str.6 = private unnamed_addr constant [6 x i8] c"empty\00", align 1
@.str.7 = private unnamed_addr constant [18 x i8] c"-- List[lv%.2d]: \00", align 1
@.str.8 = private unnamed_addr constant [40 x i8] c"total chunks: %d, total word size: %lu.\00", align 1

; Function Attrs: mustprogress nounwind uwtable
define linkonce_odr hidden noundef i64 @_ZN9metaspace10chunklevel19word_size_for_levelEa(i8 noundef signext %0) #1 comdat {
  %2 = alloca i8, align 1
  store i8 %0, ptr %2, align 1
  %3 = load i8, ptr %2, align 1
  %4 = sext i8 %3 to i32
  %5 = zext i32 %4 to i64
  %6 = lshr i64 16777216, %5
  %7 = udiv i64 %6, 8
  ret i64 %7
}

; Function Attrs: mustprogress nounwind uwtable
define linkonce_odr hidden noundef i32 @_ZNK9metaspace13FreeChunkList10num_chunksEv(ptr noundef nonnull align 8 dereferenceable(20) %0) #1 comdat align 2 {
  %2 = alloca ptr, align 8
  store ptr %0, ptr %2, align 8
  %3 = load ptr, ptr %2, align 8
  %4 = getelementptr inbounds %"class.metaspace::FreeChunkList", ptr %3, i32 0, i32 2
  %5 = call noundef i32 @_ZNK9metaspace15AbstractCounterIjE3getEv(ptr noundef nonnull align 4 dereferenceable(4) %4)
  ret i32 %5
}

; Function Attrs: mustprogress nounwind uwtable
define linkonce_odr hidden noundef ptr @_ZNK9metaspace9Metachunk4nextEv(ptr noundef nonnull align 8 dereferenceable(72) %0) #1 comdat align 2 {
  %2 = alloca ptr, align 8
  store ptr %0, ptr %2, align 8
  %3 = load ptr, ptr %2, align 8
  %4 = getelementptr inbounds %"class.metaspace::Metachunk", ptr %3, i32 0, i32 7
  %5 = load ptr, ptr %4, align 8
  ret ptr %5
}

; Function Attrs: mustprogress nounwind uwtable
define linkonce_odr hidden noundef i32 @_ZNK9metaspace15AbstractCounterIjE3getEv(ptr noundef nonnull align 4 dereferenceable(4) %0) #1 comdat align 2 {
  %2 = alloca ptr, align 8
  store ptr %0, ptr %2, align 8
  %3 = load ptr, ptr %2, align 8
  %4 = getelementptr inbounds %"class.metaspace::AbstractCounter", ptr %3, i32 0, i32 0
  %5 = load i32, ptr %4, align 4
  ret i32 %5
}

; Function Attrs: mustprogress nounwind uwtable
define hidden noundef i64 @_ZNK9metaspace19FreeChunkListVector9word_sizeEv(ptr noundef nonnull align 8 dereferenceable(360) %0) #1 align 2 {
  %2 = alloca ptr, align 8
  %3 = alloca i64, align 8
  %4 = alloca i8, align 1
  store ptr %0, ptr %2, align 8
  %5 = load ptr, ptr %2, align 8
  store i64 0, ptr %3, align 8
  store i8 0, ptr %4, align 1
  br label %6

6:                                                ; preds = %20, %1
  %7 = load i8, ptr %4, align 1
  %8 = sext i8 %7 to i32
  %9 = icmp sle i32 %8, 14
  br i1 %9, label %10, label %23

10:                                               ; preds = %6
  %11 = load i8, ptr %4, align 1
  %12 = call noundef ptr @_ZNK9metaspace19FreeChunkListVector14list_for_levelEa(ptr noundef nonnull align 8 dereferenceable(360) %5, i8 noundef signext %11)
  %13 = call noundef i32 @_ZNK9metaspace13FreeChunkList10num_chunksEv(ptr noundef nonnull align 8 dereferenceable(20) %12)
  %14 = sext i32 %13 to i64
  %15 = load i8, ptr %4, align 1
  %16 = call noundef i64 @_ZN9metaspace10chunklevel19word_size_for_levelEa(i8 noundef signext %15)
  %17 = mul i64 %14, %16
  %18 = load i64, ptr %3, align 8
  %19 = add i64 %18, %17
  store i64 %19, ptr %3, align 8
  br label %20

20:                                               ; preds = %10
  %21 = load i8, ptr %4, align 1
  %22 = add i8 %21, 1
  store i8 %22, ptr %4, align 1
  br label %6, !llvm.loop !9

23:                                               ; preds = %6
  %24 = load i64, ptr %3, align 8
  ret i64 %24
}

; Function Attrs: mustprogress nounwind uwtable
define hidden noundef i32 @_ZNK9metaspace19FreeChunkListVector10num_chunksEv(ptr noundef nonnull align 8 dereferenceable(360) %0) #1 align 2 {
  %2 = alloca ptr, align 8
  %3 = alloca i32, align 4
  %4 = alloca i8, align 1
  store ptr %0, ptr %2, align 8
  %5 = load ptr, ptr %2, align 8
  store i32 0, ptr %3, align 4
  store i8 0, ptr %4, align 1
  br label %6

6:                                                ; preds = %16, %1
  %7 = load i8, ptr %4, align 1
  %8 = sext i8 %7 to i32
  %9 = icmp sle i32 %8, 14
  br i1 %9, label %10, label %19

10:                                               ; preds = %6
  %11 = load i8, ptr %4, align 1
  %12 = call noundef ptr @_ZNK9metaspace19FreeChunkListVector14list_for_levelEa(ptr noundef nonnull align 8 dereferenceable(360) %5, i8 noundef signext %11)
  %13 = call noundef i32 @_ZNK9metaspace13FreeChunkList10num_chunksEv(ptr noundef nonnull align 8 dereferenceable(20) %12)
  %14 = load i32, ptr %3, align 4
  %15 = add nsw i32 %14, %13
  store i32 %15, ptr %3, align 4
  br label %16

16:                                               ; preds = %10
  %17 = load i8, ptr %4, align 1
  %18 = add i8 %17, 1
  store i8 %18, ptr %4, align 1
  br label %6, !llvm.loop !11

19:                                               ; preds = %6
  %20 = load i32, ptr %3, align 4
  ret i32 %20
}

; Function Attrs: mustprogress nounwind uwtable
define hidden void @_ZNK9metaspace13FreeChunkList8print_onEP12outputStream(ptr noundef nonnull align 8 dereferenceable(20) %0, ptr noundef %1) #1 align 2 {
  %3 = alloca ptr, align 8
  %4 = alloca ptr, align 8
  %5 = alloca ptr, align 8
  store ptr %0, ptr %3, align 8
  store ptr %1, ptr %4, align 8
  %6 = load ptr, ptr %3, align 8
  %7 = getelementptr inbounds %"class.metaspace::FreeChunkList", ptr %6, i32 0, i32 2
  %8 = call noundef i32 @_ZNK9metaspace15AbstractCounterIjE3getEv(ptr noundef nonnull align 4 dereferenceable(4) %7)
  %9 = icmp ugt i32 %8, 0
  br i1 %9, label %10, label %28

10:                                               ; preds = %2
  %11 = getelementptr inbounds %"class.metaspace::FreeChunkList", ptr %6, i32 0, i32 0
  %12 = load ptr, ptr %11, align 8
  store ptr %12, ptr %5, align 8
  br label %13

13:                                               ; preds = %21, %10
  %14 = load ptr, ptr %5, align 8
  %15 = icmp ne ptr %14, null
  br i1 %15, label %16, label %24

16:                                               ; preds = %13
  %17 = load ptr, ptr %4, align 8
  call void (ptr, ptr, ...) @_ZN12outputStream5printEPKcz(ptr noundef nonnull align 8 dereferenceable(56) %17, ptr noundef @.str)
  %18 = load ptr, ptr %5, align 8
  %19 = load ptr, ptr %4, align 8
  call void @_ZNK9metaspace9Metachunk8print_onEP12outputStream(ptr noundef nonnull align 8 dereferenceable(72) %18, ptr noundef %19)
  %20 = load ptr, ptr %4, align 8
  call void (ptr, ptr, ...) @_ZN12outputStream5printEPKcz(ptr noundef nonnull align 8 dereferenceable(56) %20, ptr noundef @.str.4)
  br label %21

21:                                               ; preds = %16
  %22 = load ptr, ptr %5, align 8
  %23 = call noundef ptr @_ZNK9metaspace9Metachunk4nextEv(ptr noundef nonnull align 8 dereferenceable(72) %22)
  store ptr %23, ptr %5, align 8
  br label %13, !llvm.loop !8

24:                                               ; preds = %13
  %25 = load ptr, ptr %4, align 8
  %26 = getelementptr inbounds %"class.metaspace::FreeChunkList", ptr %6, i32 0, i32 2
  %27 = call noundef i32 @_ZNK9metaspace15AbstractCounterIjE3getEv(ptr noundef nonnull align 4 dereferenceable(4) %26)
  call void (ptr, ptr, ...) @_ZN12outputStream5printEPKcz(ptr noundef nonnull align 8 dereferenceable(56) %25, ptr noundef @.str.5, i32 noundef %27)
  br label %30

28:                                               ; preds = %2
  %29 = load ptr, ptr %4, align 8
  call void (ptr, ptr, ...) @_ZN12outputStream5printEPKcz(ptr noundef nonnull align 8 dereferenceable(56) %29, ptr noundef @.str.6)
  br label %30

30:                                               ; preds = %28, %24
  ret void
}

; Function Attrs: mustprogress nounwind uwtable
define linkonce_odr hidden noundef ptr @_ZNK9metaspace19FreeChunkListVector14list_for_levelEa(ptr noundef nonnull align 8 dereferenceable(360) %0, i8 noundef signext %1) #1 comdat align 2 {
  %3 = alloca ptr, align 8
  %4 = alloca i8, align 1
  store ptr %0, ptr %3, align 8
  store i8 %1, ptr %4, align 1
  %5 = load ptr, ptr %3, align 8
  %6 = getelementptr inbounds %"class.metaspace::FreeChunkListVector", ptr %5, i32 0, i32 0
  %7 = getelementptr inbounds [15 x %"class.metaspace::FreeChunkList"], ptr %6, i64 0, i64 0
  %8 = load i8, ptr %4, align 1
  %9 = sext i8 %8 to i32
  %10 = sext i32 %9 to i64
  %11 = getelementptr inbounds %"class.metaspace::FreeChunkList", ptr %7, i64 %10
  ret ptr %11
}

; Function Attrs: mustprogress nounwind uwtable
define hidden void @_ZNK9metaspace19FreeChunkListVector8print_onEP12outputStream(ptr noundef nonnull align 8 dereferenceable(360) %0, ptr noundef %1) #1 align 2 {
  %3 = alloca ptr, align 8
  %4 = alloca ptr, align 8
  %5 = alloca i8, align 1
  store ptr %0, ptr %3, align 8
  store ptr %1, ptr %4, align 8
  %6 = load ptr, ptr %3, align 8
  store i8 0, ptr %5, align 1
  br label %7

7:                                                ; preds = %19, %2
  %8 = load i8, ptr %5, align 1
  %9 = sext i8 %8 to i32
  %10 = icmp sle i32 %9, 14
  br i1 %10, label %11, label %22

11:                                               ; preds = %7
  %12 = load ptr, ptr %4, align 8
  %13 = load i8, ptr %5, align 1
  %14 = sext i8 %13 to i32
  call void (ptr, ptr, ...) @_ZN12outputStream5printEPKcz(ptr noundef nonnull align 8 dereferenceable(56) %12, ptr noundef @.str.7, i32 noundef %14)
  %15 = load i8, ptr %5, align 1
  %16 = call noundef ptr @_ZNK9metaspace19FreeChunkListVector14list_for_levelEa(ptr noundef nonnull align 8 dereferenceable(360) %6, i8 noundef signext %15)
  %17 = load ptr, ptr %4, align 8
  call void @_ZNK9metaspace13FreeChunkList8print_onEP12outputStream(ptr noundef nonnull align 8 dereferenceable(20) %16, ptr noundef %17)
  %18 = load ptr, ptr %4, align 8
  call void @_ZN12outputStream2crEv(ptr noundef nonnull align 8 dereferenceable(56) %18)
  br label %19

19:                                               ; preds = %11
  %20 = load i8, ptr %5, align 1
  %21 = add i8 %20, 1
  store i8 %21, ptr %5, align 1
  br label %7, !llvm.loop !15

22:                                               ; preds = %7
  %23 = load ptr, ptr %4, align 8
  %24 = call noundef i32 @_ZNK9metaspace19FreeChunkListVector10num_chunksEv(ptr noundef nonnull align 8 dereferenceable(360) %6)
  %25 = call noundef i64 @_ZNK9metaspace19FreeChunkListVector9word_sizeEv(ptr noundef nonnull align 8 dereferenceable(360) %6)
  call void (ptr, ptr, ...) @_ZN12outputStream8print_crEPKcz(ptr noundef nonnull align 8 dereferenceable(56) %23, ptr noundef @.str.8, i32 noundef %24, i64 noundef %25)
  ret void
}