; Function Attrs: mustprogress nounwind uwtable
define hidden void @_ZNK9metaspace19FreeChunkListVector8print_onEP12outputStream(ptr nocapture noundef nonnull readonly align 8 dereferenceable(360) %0, ptr noundef %1) local_unnamed_addr #1 align 2 {
  br label %3

3:                                                ; preds = %2, %_ZNK9metaspace13FreeChunkList8print_onEP12outputStream.exit
  %indvars.iv = phi i64 [ 0, %2 ], [ %indvars.iv.next, %_ZNK9metaspace13FreeChunkList8print_onEP12outputStream.exit ]
  %4 = trunc nuw nsw i64 %indvars.iv to i32
  tail call void (ptr, ptr, ...) @_ZN12outputStream5printEPKcz(ptr noundef nonnull align 8 dereferenceable(56) %1, ptr noundef nonnull @.str.7, i32 noundef %4) #6
  %5 = getelementptr inbounds %"class.metaspace::FreeChunkList", ptr %0, i64 %indvars.iv
  %6 = getelementptr inbounds i8, ptr %5, i64 16
  %7 = load i32, ptr %6, align 8
  %.not.i = icmp eq i32 %7, 0
  br i1 %.not.i, label %10, label %.preheader.i

.preheader.i:                                     ; preds = %3
  %.010.i = load ptr, ptr %5, align 8
  %.not911.i = icmp eq ptr %.010.i, null
  br i1 %.not911.i, label %._crit_edge.i, label %.lr.ph.i

.lr.ph.i:                                         ; preds = %.preheader.i, %.lr.ph.i
  %.012.i = phi ptr [ %.0.i, %.lr.ph.i ], [ %.010.i, %.preheader.i ]
  tail call void (ptr, ptr, ...) @_ZN12outputStream5printEPKcz(ptr noundef nonnull align 8 dereferenceable(56) %1, ptr noundef nonnull @.str) #6
  tail call void @_ZNK9metaspace9Metachunk8print_onEP12outputStream(ptr noundef nonnull align 8 dereferenceable(72) %.012.i, ptr noundef nonnull %1) #6
  tail call void (ptr, ptr, ...) @_ZN12outputStream5printEPKcz(ptr noundef nonnull align 8 dereferenceable(56) %1, ptr noundef nonnull @.str.4) #6
  %8 = getelementptr inbounds i8, ptr %.012.i, i64 48
  %.0.i = load ptr, ptr %8, align 8
  %.not9.i = icmp eq ptr %.0.i, null
  br i1 %.not9.i, label %._crit_edge.loopexit.i, label %.lr.ph.i, !llvm.loop !8

._crit_edge.loopexit.i:                           ; preds = %.lr.ph.i
  %.pre.i = load i32, ptr %6, align 8
  br label %._crit_edge.i

._crit_edge.i:                                    ; preds = %._crit_edge.loopexit.i, %.preheader.i
  %9 = phi i32 [ %.pre.i, %._crit_edge.loopexit.i ], [ %7, %.preheader.i ]
  tail call void (ptr, ptr, ...) @_ZN12outputStream5printEPKcz(ptr noundef nonnull align 8 dereferenceable(56) %1, ptr noundef nonnull @.str.5, i32 noundef %9) #6
  br label %_ZNK9metaspace13FreeChunkList8print_onEP12outputStream.exit

10:                                               ; preds = %3
  tail call void (ptr, ptr, ...) @_ZN12outputStream5printEPKcz(ptr noundef nonnull align 8 dereferenceable(56) %1, ptr noundef nonnull @.str.6) #6
  br label %_ZNK9metaspace13FreeChunkList8print_onEP12outputStream.exit

_ZNK9metaspace13FreeChunkList8print_onEP12outputStream.exit: ; preds = %._crit_edge.i, %10
  tail call void @_ZN12outputStream2crEv(ptr noundef nonnull align 8 dereferenceable(56) %1) #6
  %indvars.iv.next = add nuw nsw i64 %indvars.iv, 1
  %exitcond.not = icmp eq i64 %indvars.iv.next, 15
  br i1 %exitcond.not, label %.preheader, label %3, !llvm.loop !15

.preheader:                                       ; preds = %_ZNK9metaspace13FreeChunkList8print_onEP12outputStream.exit, %.preheader
  %indvars.iv.i = phi i64 [ %indvars.iv.next.i, %.preheader ], [ 0, %_ZNK9metaspace13FreeChunkList8print_onEP12outputStream.exit ]
  %.056.i = phi i32 [ %13, %.preheader ], [ 0, %_ZNK9metaspace13FreeChunkList8print_onEP12outputStream.exit ]
  %11 = getelementptr inbounds %"class.metaspace::FreeChunkList", ptr %0, i64 %indvars.iv.i, i32 2
  %12 = load i32, ptr %11, align 8
  %13 = add nsw i32 %12, %.056.i
  %indvars.iv.next.i = add nuw nsw i64 %indvars.iv.i, 1
  %exitcond.not.i = icmp eq i64 %indvars.iv.next.i, 15
  br i1 %exitcond.not.i, label %_ZNK9metaspace19FreeChunkListVector10num_chunksEv.exit, label %.preheader, !llvm.loop !11

_ZNK9metaspace19FreeChunkListVector10num_chunksEv.exit: ; preds = %.preheader, %_ZNK9metaspace19FreeChunkListVector10num_chunksEv.exit
  %indvars.iv.i9 = phi i64 [ %indvars.iv.next.i10, %_ZNK9metaspace19FreeChunkListVector10num_chunksEv.exit ], [ 0, %.preheader ]
  %.067.i = phi i64 [ %19, %_ZNK9metaspace19FreeChunkListVector10num_chunksEv.exit ], [ 0, %.preheader ]
  %14 = getelementptr inbounds %"class.metaspace::FreeChunkList", ptr %0, i64 %indvars.iv.i9, i32 2
  %15 = load i32, ptr %14, align 8
  %16 = sext i32 %15 to i64
  %17 = lshr exact i64 2097152, %indvars.iv.i9
  %18 = mul nsw i64 %17, %16
  %19 = add i64 %18, %.067.i
  %indvars.iv.next.i10 = add nuw nsw i64 %indvars.iv.i9, 1
  %exitcond.not.i11 = icmp eq i64 %indvars.iv.next.i10, 15
  br i1 %exitcond.not.i11, label %_ZNK9metaspace19FreeChunkListVector9word_sizeEv.exit, label %_ZNK9metaspace19FreeChunkListVector10num_chunksEv.exit, !llvm.loop !9

_ZNK9metaspace19FreeChunkListVector9word_sizeEv.exit: ; preds = %_ZNK9metaspace19FreeChunkListVector10num_chunksEv.exit
  tail call void (ptr, ptr, ...) @_ZN12outputStream8print_crEPKcz(ptr noundef nonnull align 8 dereferenceable(56) %1, ptr noundef nonnull @.str.8, i32 noundef %13, i64 noundef %19) #6
  ret void
}